target datalayout = "e-m:e-p270:32:32-p271:32:32-p272:64:64-i64:64-i128:128-f80:128-n8:16:32:64-S128"
target triple = "x86_64-pc-linux-gnu"

%struct.b2Vec2 = type { float, float }
%struct.b2Rot = type { float, float }

; Function Attrs: inlinehint nounwind uwtable
define internal <2 x float> @b2NormalizeRot(<2 x float> %0) #3 {
  %2 = alloca %struct.b2Rot, align 4
  %3 = alloca %struct.b2Rot, align 4
  %4 = alloca float, align 4
  %5 = alloca float, align 4
  store <2 x float> %0, ptr %3, align 4
  call void @llvm.lifetime.start.p0(i64 4, ptr %4) #8
  %6 = getelementptr inbounds nuw %struct.b2Rot, ptr %3, i32 0, i32 1
  %7 = load float, ptr %6, align 4, !tbaa !10
  %8 = getelementptr inbounds nuw %struct.b2Rot, ptr %3, i32 0, i32 1
  %9 = load float, ptr %8, align 4, !tbaa !10
  %10 = fmul float %7, %9
  %11 = getelementptr inbounds nuw %struct.b2Rot, ptr %3, i32 0, i32 0
  %12 = load float, ptr %11, align 4, !tbaa !12
  %13 = getelementptr inbounds nuw %struct.b2Rot, ptr %3, i32 0, i32 0
  %14 = load float, ptr %13, align 4, !tbaa !12
  %15 = fmul float %12, %14
  %16 = fadd float %10, %15
  %17 = call float @sqrtf(float noundef %16) #8, !tbaa !13
  store float %17, ptr %4, align 4, !tbaa !3
  call void @llvm.lifetime.start.p0(i64 4, ptr %5) #8
  %18 = load float, ptr %4, align 4, !tbaa !3
  %19 = fpext float %18 to double
  %20 = fcmp ogt double %19, 0.000000e+00
  br i1 %20, label %21, label %24

21:                                               ; preds = %1
  %22 = load float, ptr %4, align 4, !tbaa !3
  %23 = fdiv float 1.000000e+00, %22
  br label %25

24:                                               ; preds = %1
  br label %25

25:                                               ; preds = %24, %21
  %26 = phi float [ %23, %21 ], [ 0.000000e+00, %24 ]
  store float %26, ptr %5, align 4, !tbaa !3
  %27 = getelementptr inbounds nuw %struct.b2Rot, ptr %2, i32 0, i32 0
  %28 = getelementptr inbounds nuw %struct.b2Rot, ptr %3, i32 0, i32 0
  %29 = load float, ptr %28, align 4, !tbaa !12
  %30 = load float, ptr %5, align 4, !tbaa !3
  %31 = fmul float %29, %30
  store float %31, ptr %27, align 4, !tbaa !12
  %32 = getelementptr inbounds nuw %struct.b2Rot, ptr %2, i32 0, i32 1
  %33 = getelementptr inbounds nuw %struct.b2Rot, ptr %3, i32 0, i32 1
  %34 = load float, ptr %33, align 4, !tbaa !10
  %35 = load float, ptr %5, align 4, !tbaa !3
  %36 = fmul float %34, %35
  store float %36, ptr %32, align 4, !tbaa !10
  call void @llvm.lifetime.end.p0(i64 4, ptr %5) #8
  call void @llvm.lifetime.end.p0(i64 4, ptr %4) #8
  %37 = load <2 x float>, ptr %2, align 4
  ret <2 x float> %37
}

; Function Attrs: inlinehint nounwind uwtable
define internal float @b2Cross(<2 x float> %0, <2 x float> %1) #3 {
  %3 = alloca %struct.b2Vec2, align 4
  %4 = alloca %struct.b2Vec2, align 4
  store <2 x float> %0, ptr %3, align 4
  store <2 x float> %1, ptr %4, align 4
  %5 = getelementptr inbounds nuw %struct.b2Vec2, ptr %3, i32 0, i32 0
  %6 = load float, ptr %5, align 4, !tbaa !7
  %7 = getelementptr inbounds nuw %struct.b2Vec2, ptr %4, i32 0, i32 1
  %8 = load float, ptr %7, align 4, !tbaa !9
  %9 = fmul float %6, %8
  %10 = getelementptr inbounds nuw %struct.b2Vec2, ptr %3, i32 0, i32 1
  %11 = load float, ptr %10, align 4, !tbaa !9
  %12 = getelementptr inbounds nuw %struct.b2Vec2, ptr %4, i32 0, i32 0
  %13 = load float, ptr %12, align 4, !tbaa !7
  %14 = fmul float %11, %13
  %15 = fsub float %9, %14
  ret float %15
}

; Function Attrs: inlinehint nounwind uwtable
define internal float @b2Dot(<2 x float> %0, <2 x float> %1) #3 {
  %3 = alloca %struct.b2Vec2, align 4
  %4 = alloca %struct.b2Vec2, align 4
  store <2 x float> %0, ptr %3, align 4
  store <2 x float> %1, ptr %4, align 4
  %5 = getelementptr inbounds nuw %struct.b2Vec2, ptr %3, i32 0, i32 0
  %6 = load float, ptr %5, align 4, !tbaa !7
  %7 = getelementptr inbounds nuw %struct.b2Vec2, ptr %4, i32 0, i32 0
  %8 = load float, ptr %7, align 4, !tbaa !7
  %9 = fmul float %6, %8
  %10 = getelementptr inbounds nuw %struct.b2Vec2, ptr %3, i32 0, i32 1
  %11 = load float, ptr %10, align 4, !tbaa !9
  %12 = getelementptr inbounds nuw %struct.b2Vec2, ptr %4, i32 0, i32 1
  %13 = load float, ptr %12, align 4, !tbaa !9
  %14 = fmul float %11, %13
  %15 = fadd float %9, %14
  ret float %15
}

; Function Attrs: nounwind uwtable
define <2 x float> @b2ComputeRotationBetweenUnitVectors(<2 x float> %0, <2 x float> %1) #2 {
  %3 = alloca %struct.b2Rot, align 4
  %4 = alloca %struct.b2Vec2, align 4
  %5 = alloca %struct.b2Vec2, align 4
  %6 = alloca %struct.b2Rot, align 4
  store <2 x float> %0, ptr %4, align 4
  store <2 x float> %1, ptr %5, align 4
  call void @llvm.lifetime.start.p0(i64 8, ptr %6) #8
  %7 = load <2 x float>, ptr %4, align 4
  %8 = load <2 x float>, ptr %5, align 4
  %9 = call float @b2Dot(<2 x float> %7, <2 x float> %8)
  %10 = getelementptr inbounds nuw %struct.b2Rot, ptr %6, i32 0, i32 0
  store float %9, ptr %10, align 4, !tbaa !12
  %11 = load <2 x float>, ptr %4, align 4
  %12 = load <2 x float>, ptr %5, align 4
  %13 = call float @b2Cross(<2 x float> %11, <2 x float> %12)
  %14 = getelementptr inbounds nuw %struct.b2Rot, ptr %6, i32 0, i32 1
  store float %13, ptr %14, align 4, !tbaa !10
  %15 = load <2 x float>, ptr %6, align 4
  %16 = call <2 x float> @b2NormalizeRot(<2 x float> %15)
  store <2 x float> %16, ptr %3, align 4
  call void @llvm.lifetime.end.p0(i64 8, ptr %6) #8
  %17 = load <2 x float>, ptr %3, align 4
  ret <2 x float> %17
}