; Function Attrs: mustprogress nofree norecurse nosync nounwind willreturn memory(none) uwtable
define <2 x float> @b2ComputeRotationBetweenUnitVectors(<2 x float> %0, <2 x float> %1) local_unnamed_addr #2 {
  %.sroa.01.0.vec.extract.i = extractelement <2 x float> %0, i64 0
  %.sroa.0.0.vec.extract.i = extractelement <2 x float> %1, i64 0
  %3 = fmul <2 x float> %0, %1
  %4 = extractelement <2 x float> %3, i64 0
  %.sroa.01.4.vec.extract.i = extractelement <2 x float> %0, i64 1
  %.sroa.0.4.vec.extract.i = extractelement <2 x float> %1, i64 1
  %5 = fmul float %.sroa.01.4.vec.extract.i, %.sroa.0.4.vec.extract.i
  %6 = fadd float %4, %5
  %7 = fmul float %.sroa.01.0.vec.extract.i, %.sroa.0.4.vec.extract.i
  %8 = fmul float %.sroa.01.4.vec.extract.i, %.sroa.0.0.vec.extract.i
  %9 = fsub float %7, %8
  %10 = fmul float %9, %9
  %11 = fmul float %6, %6
  %12 = fadd float %10, %11
  %sqrt.i = tail call float @llvm.sqrt.f32(float %12)
  %13 = fcmp ogt float %12, 0.000000e+00
  %14 = fdiv float 1.000000e+00, %sqrt.i
  %15 = select i1 %13, float %14, float 0.000000e+00
  %16 = fmul float %6, %15
  %.sroa.012.0.vec.insert.i = insertelement <2 x float> poison, float %16, i64 0
  %17 = fmul float %9, %15
  %.sroa.012.4.vec.insert.i = insertelement <2 x float> %.sroa.012.0.vec.insert.i, float %17, i64 1
  ret <2 x float> %.sroa.012.4.vec.insert.i
}